target datalayout = "e-m:e-p270:32:32-p271:32:32-p272:64:64-i64:64-i128:128-f80:128-n8:16:32:64-S128"
target triple = "x86_64-pc-linux-gnu"

%struct.mpd_context_t = type { i64, i64, i64, i32, i32, i32, i32, i32, i32 }
%struct.mpd_t = type { i8, i64, i64, i64, i64, ptr }

@MPD_MINALLOC = external hidden global i64, align 8
@one = internal constant { i8, [7 x i8], i64, i64, i64, i64, ptr } { i8 -112, [7 x i8] zeroinitializer, i64 0, i64 1, i64 1, i64 1, ptr @data_one }, align 8

; Function Attrs: alwaysinline nounwind uwtable
define hidden i32 @mpd_isstatic_data(ptr noundef %0) #1 {
  %2 = alloca ptr, align 8
  store ptr %0, ptr %2, align 8, !tbaa !7
  %3 = load ptr, ptr %2, align 8, !tbaa !7
  %4 = getelementptr inbounds nuw %struct.mpd_t, ptr %3, i32 0, i32 0
  %5 = load i8, ptr %4, align 8, !tbaa !25
  %6 = zext i8 %5 to i32
  %7 = and i32 %6, 32
  ret i32 %7
}

; Function Attrs: alwaysinline nounwind uwtable
define hidden void @mpd_copy_flags(ptr noundef %0, ptr noundef %1) #1 {
  %3 = alloca ptr, align 8
  %4 = alloca ptr, align 8
  %5 = alloca i8, align 1
  store ptr %0, ptr %3, align 8, !tbaa !7
  store ptr %1, ptr %4, align 8, !tbaa !7
  call void @llvm.lifetime.start.p0(i64 1, ptr %5) #10
  %6 = load ptr, ptr %4, align 8, !tbaa !7
  %7 = getelementptr inbounds nuw %struct.mpd_t, ptr %6, i32 0, i32 0
  %8 = load i8, ptr %7, align 8, !tbaa !25
  store i8 %8, ptr %5, align 1, !tbaa !32
  %9 = load ptr, ptr %3, align 8, !tbaa !7
  %10 = getelementptr inbounds nuw %struct.mpd_t, ptr %9, i32 0, i32 0
  %11 = load i8, ptr %10, align 8, !tbaa !25
  %12 = zext i8 %11 to i32
  %13 = and i32 %12, 240
  %14 = trunc i32 %13 to i8
  store i8 %14, ptr %10, align 8, !tbaa !25
  %15 = load i8, ptr %5, align 1, !tbaa !32
  %16 = zext i8 %15 to i32
  %17 = and i32 %16, -241
  %18 = load ptr, ptr %3, align 8, !tbaa !7
  %19 = getelementptr inbounds nuw %struct.mpd_t, ptr %18, i32 0, i32 0
  %20 = load i8, ptr %19, align 8, !tbaa !25
  %21 = zext i8 %20 to i32
  %22 = or i32 %21, %17
  %23 = trunc i32 %22 to i8
  store i8 %23, ptr %19, align 8, !tbaa !25
  call void @llvm.lifetime.end.p0(i64 1, ptr %5) #10
  ret void
}

; Function Attrs: alwaysinline nounwind uwtable
define hidden i32 @mpd_qresize(ptr noundef %0, i64 noundef %1, ptr noundef %2) #1 {
  %4 = alloca i32, align 4
  %5 = alloca ptr, align 8
  %6 = alloca i64, align 8
  %7 = alloca ptr, align 8
  store ptr %0, ptr %5, align 8, !tbaa !7
  store i64 %1, ptr %6, align 8, !tbaa !3
  store ptr %2, ptr %7, align 8, !tbaa !29
  %8 = load i64, ptr %6, align 8, !tbaa !3
  %9 = load i64, ptr @MPD_MINALLOC, align 8, !tbaa !3
  %10 = icmp sle i64 %8, %9
  br i1 %10, label %11, label %13

11:                                               ; preds = %3
  %12 = load i64, ptr @MPD_MINALLOC, align 8, !tbaa !3
  br label %15

13:                                               ; preds = %3
  %14 = load i64, ptr %6, align 8, !tbaa !3
  br label %15

15:                                               ; preds = %13, %11
  %16 = phi i64 [ %12, %11 ], [ %14, %13 ]
  store i64 %16, ptr %6, align 8, !tbaa !3
  %17 = load i64, ptr %6, align 8, !tbaa !3
  %18 = load ptr, ptr %5, align 8, !tbaa !7
  %19 = getelementptr inbounds nuw %struct.mpd_t, ptr %18, i32 0, i32 4
  %20 = load i64, ptr %19, align 8, !tbaa !31
  %21 = icmp eq i64 %17, %20
  br i1 %21, label %22, label %23

22:                                               ; preds = %15
  store i32 1, ptr %4, align 4
  br label %44

23:                                               ; preds = %15
  %24 = load ptr, ptr %5, align 8, !tbaa !7
  %25 = call i32 @mpd_isstatic_data(ptr noundef %24)
  %26 = icmp ne i32 %25, 0
  br i1 %26, label %27, label %39

27:                                               ; preds = %23
  %28 = load i64, ptr %6, align 8, !tbaa !3
  %29 = load ptr, ptr %5, align 8, !tbaa !7
  %30 = getelementptr inbounds nuw %struct.mpd_t, ptr %29, i32 0, i32 4
  %31 = load i64, ptr %30, align 8, !tbaa !31
  %32 = icmp sgt i64 %28, %31
  br i1 %32, label %33, label %38

33:                                               ; preds = %27
  %34 = load ptr, ptr %5, align 8, !tbaa !7
  %35 = load i64, ptr %6, align 8, !tbaa !3
  %36 = load ptr, ptr %7, align 8, !tbaa !29
  %37 = call i32 @mpd_switch_to_dyn(ptr noundef %34, i64 noundef %35, ptr noundef %36)
  store i32 %37, ptr %4, align 4
  br label %44

38:                                               ; preds = %27
  store i32 1, ptr %4, align 4
  br label %44

39:                                               ; preds = %23
  %40 = load ptr, ptr %5, align 8, !tbaa !7
  %41 = load i64, ptr %6, align 8, !tbaa !3
  %42 = load ptr, ptr %7, align 8, !tbaa !29
  %43 = call i32 @mpd_realloc_dyn(ptr noundef %40, i64 noundef %41, ptr noundef %42)
  store i32 %43, ptr %4, align 4
  br label %44

44:                                               ; preds = %39, %38, %33, %22
  %45 = load i32, ptr %4, align 4
  ret i32 %45
}

; Function Attrs: nounwind uwtable
define hidden i32 @mpd_qcopy(ptr noundef %0, ptr noundef %1, ptr noundef %2) #0 {
  %4 = alloca i32, align 4
  %5 = alloca ptr, align 8
  %6 = alloca ptr, align 8
  %7 = alloca ptr, align 8
  store ptr %0, ptr %5, align 8, !tbaa !7
  store ptr %1, ptr %6, align 8, !tbaa !7
  store ptr %2, ptr %7, align 8, !tbaa !29
  %8 = load ptr, ptr %5, align 8, !tbaa !7
  %9 = load ptr, ptr %6, align 8, !tbaa !7
  %10 = icmp eq ptr %8, %9
  br i1 %10, label %11, label %12

11:                                               ; preds = %3
  store i32 1, ptr %4, align 4
  br label %49

12:                                               ; preds = %3
  %13 = load ptr, ptr %5, align 8, !tbaa !7
  %14 = load ptr, ptr %6, align 8, !tbaa !7
  %15 = getelementptr inbounds nuw %struct.mpd_t, ptr %14, i32 0, i32 3
  %16 = load i64, ptr %15, align 8, !tbaa !22
  %17 = load ptr, ptr %7, align 8, !tbaa !29
  %18 = call i32 @mpd_qresize(ptr noundef %13, i64 noundef %16, ptr noundef %17)
  %19 = icmp ne i32 %18, 0
  br i1 %19, label %21, label %20

20:                                               ; preds = %12
  store i32 0, ptr %4, align 4
  br label %49

21:                                               ; preds = %12
  %22 = load ptr, ptr %5, align 8, !tbaa !7
  %23 = load ptr, ptr %6, align 8, !tbaa !7
  call void @mpd_copy_flags(ptr noundef %22, ptr noundef %23)
  %24 = load ptr, ptr %6, align 8, !tbaa !7
  %25 = getelementptr inbounds nuw %struct.mpd_t, ptr %24, i32 0, i32 1
  %26 = load i64, ptr %25, align 8, !tbaa !10
  %27 = load ptr, ptr %5, align 8, !tbaa !7
  %28 = getelementptr inbounds nuw %struct.mpd_t, ptr %27, i32 0, i32 1
  store i64 %26, ptr %28, align 8, !tbaa !10
  %29 = load ptr, ptr %6, align 8, !tbaa !7
  %30 = getelementptr inbounds nuw %struct.mpd_t, ptr %29, i32 0, i32 2
  %31 = load i64, ptr %30, align 8, !tbaa !13
  %32 = load ptr, ptr %5, align 8, !tbaa !7
  %33 = getelementptr inbounds nuw %struct.mpd_t, ptr %32, i32 0, i32 2
  store i64 %31, ptr %33, align 8, !tbaa !13
  %34 = load ptr, ptr %6, align 8, !tbaa !7
  %35 = getelementptr inbounds nuw %struct.mpd_t, ptr %34, i32 0, i32 3
  %36 = load i64, ptr %35, align 8, !tbaa !22
  %37 = load ptr, ptr %5, align 8, !tbaa !7
  %38 = getelementptr inbounds nuw %struct.mpd_t, ptr %37, i32 0, i32 3
  store i64 %36, ptr %38, align 8, !tbaa !22
  %39 = load ptr, ptr %5, align 8, !tbaa !7
  %40 = getelementptr inbounds nuw %struct.mpd_t, ptr %39, i32 0, i32 5
  %41 = load ptr, ptr %40, align 8, !tbaa !21
  %42 = load ptr, ptr %6, align 8, !tbaa !7
  %43 = getelementptr inbounds nuw %struct.mpd_t, ptr %42, i32 0, i32 5
  %44 = load ptr, ptr %43, align 8, !tbaa !21
  %45 = load ptr, ptr %6, align 8, !tbaa !7
  %46 = getelementptr inbounds nuw %struct.mpd_t, ptr %45, i32 0, i32 3
  %47 = load i64, ptr %46, align 8, !tbaa !22
  %48 = mul i64 %47, 8
  call void @llvm.memcpy.p0.p0.i64(ptr align 8 %41, ptr align 8 %44, i64 %48, i1 false)
  store i32 1, ptr %4, align 4
  br label %49

49:                                               ; preds = %21, %20, %11
  %50 = load i32, ptr %4, align 4
  ret i32 %50
}

; Function Attrs: inlinehint nounwind uwtable
define internal void @_mpd_qpowmod_uint(ptr noundef %0, ptr noundef %1, i64 noundef %2, ptr noundef %3, ptr noundef %4) #2 {
  %6 = alloca ptr, align 8
  %7 = alloca ptr, align 8
  %8 = alloca i64, align 8
  %9 = alloca ptr, align 8
  %10 = alloca ptr, align 8
  %11 = alloca %struct.mpd_context_t, align 8
  store ptr %0, ptr %6, align 8, !tbaa !7
  store ptr %1, ptr %7, align 8, !tbaa !7
  store i64 %2, ptr %8, align 8, !tbaa !3
  store ptr %3, ptr %9, align 8, !tbaa !7
  store ptr %4, ptr %10, align 8, !tbaa !29
  call void @llvm.lifetime.start.p0(i64 48, ptr %11) #10
  call void @mpd_maxcontext(ptr noundef %11)
  %12 = load ptr, ptr %6, align 8, !tbaa !7
  %13 = load ptr, ptr %10, align 8, !tbaa !29
  %14 = call i32 @mpd_qcopy(ptr noundef %12, ptr noundef @one, ptr noundef %13)
  br label %15

15:                                               ; preds = %31, %5
  %16 = load i64, ptr %8, align 8, !tbaa !3
  %17 = icmp ugt i64 %16, 0
  br i1 %17, label %18, label %42

18:                                               ; preds = %15
  %19 = load i64, ptr %8, align 8, !tbaa !3
  %20 = and i64 %19, 1
  %21 = icmp ne i64 %20, 0
  br i1 %21, label %22, label %31

22:                                               ; preds = %18
  %23 = load ptr, ptr %6, align 8, !tbaa !7
  %24 = load ptr, ptr %6, align 8, !tbaa !7
  %25 = load ptr, ptr %7, align 8, !tbaa !7
  %26 = load ptr, ptr %10, align 8, !tbaa !29
  call void @_mpd_qmul_exact(ptr noundef %23, ptr noundef %24, ptr noundef %25, ptr noundef %11, ptr noundef %26)
  %27 = load ptr, ptr %6, align 8, !tbaa !7
  %28 = load ptr, ptr %6, align 8, !tbaa !7
  %29 = load ptr, ptr %9, align 8, !tbaa !7
  %30 = load ptr, ptr %10, align 8, !tbaa !29
  call void @mpd_qrem(ptr noundef %27, ptr noundef %28, ptr noundef %29, ptr noundef %11, ptr noundef %30)
  br label %31

31:                                               ; preds = %22, %18
  %32 = load ptr, ptr %7, align 8, !tbaa !7
  %33 = load ptr, ptr %7, align 8, !tbaa !7
  %34 = load ptr, ptr %7, align 8, !tbaa !7
  %35 = load ptr, ptr %10, align 8, !tbaa !29
  call void @_mpd_qmul_exact(ptr noundef %32, ptr noundef %33, ptr noundef %34, ptr noundef %11, ptr noundef %35)
  %36 = load ptr, ptr %7, align 8, !tbaa !7
  %37 = load ptr, ptr %7, align 8, !tbaa !7
  %38 = load ptr, ptr %9, align 8, !tbaa !7
  %39 = load ptr, ptr %10, align 8, !tbaa !29
  call void @mpd_qrem(ptr noundef %36, ptr noundef %37, ptr noundef %38, ptr noundef %11, ptr noundef %39)
  %40 = load i64, ptr %8, align 8, !tbaa !3
  %41 = lshr i64 %40, 1
  store i64 %41, ptr %8, align 8, !tbaa !3
  br label %15, !llvm.loop !75

42:                                               ; preds = %15
  call void @llvm.lifetime.end.p0(i64 48, ptr %11) #10
  ret void
}