; Function Attrs: inlinehint nounwind uwtable
define internal fastcc void @_mpd_qpowmod_uint(ptr noundef nonnull %0, ptr noundef nonnull %1, ptr noundef nonnull %2, ptr noundef %3) unnamed_addr #16 {
  %5 = alloca %struct.mpd_context_t, align 8
  call void @llvm.lifetime.start.p0(i64 48, ptr nonnull %5) #33
  call void @mpd_maxcontext(ptr noundef nonnull %5) #33
  %6 = icmp eq ptr %0, @one
  br i1 %6, label %mpd_qcopy.exit.preheader, label %7

7:                                                ; preds = %4
  %8 = load i64, ptr @MPD_MINALLOC, align 8, !tbaa !3
  %9 = call i64 @llvm.smax.i64(i64 %8, i64 1)
  %10 = getelementptr inbounds nuw i8, ptr %0, i64 32
  %11 = load i64, ptr %10, align 8, !tbaa !21
  %12 = icmp eq i64 %9, %11
  %.pre20.i = load i8, ptr %0, align 8, !tbaa !19
  br i1 %12, label %mpd_qresize.exit.thread.i, label %13

13:                                               ; preds = %7
  %14 = and i8 %.pre20.i, 32
  %.not.i.i = icmp eq i8 %14, 0
  br i1 %.not.i.i, label %19, label %15

15:                                               ; preds = %13
  %16 = icmp sgt i64 %9, %11
  br i1 %16, label %17, label %mpd_qresize.exit.thread.i

17:                                               ; preds = %15
  %18 = call i32 @mpd_switch_to_dyn(ptr noundef nonnull %0, i64 noundef %9, ptr noundef %3) #33
  br label %mpd_qresize.exit.i

19:                                               ; preds = %13
  %20 = call i32 @mpd_realloc_dyn(ptr noundef nonnull %0, i64 noundef %9, ptr noundef %3) #33
  br label %mpd_qresize.exit.i

mpd_qresize.exit.i:                               ; preds = %19, %17
  %.0.i.i = phi i32 [ %18, %17 ], [ %20, %19 ]
  %.not.i = icmp eq i32 %.0.i.i, 0
  br i1 %.not.i, label %mpd_qcopy.exit.preheader, label %mpd_qresize.exit.mpd_qresize.exit.thread_crit_edge.i

mpd_qresize.exit.mpd_qresize.exit.thread_crit_edge.i: ; preds = %mpd_qresize.exit.i
  %.pre.i = load i8, ptr %0, align 8, !tbaa !19
  br label %mpd_qresize.exit.thread.i

mpd_qresize.exit.thread.i:                        ; preds = %mpd_qresize.exit.mpd_qresize.exit.thread_crit_edge.i, %15, %7
  %21 = phi i8 [ %.pre.i, %mpd_qresize.exit.mpd_qresize.exit.thread_crit_edge.i ], [ %.pre20.i, %15 ], [ %.pre20.i, %7 ]
  %22 = and i8 %21, -16
  store i8 %22, ptr %0, align 8, !tbaa !19
  %23 = getelementptr inbounds nuw i8, ptr %0, i64 8
  store i64 0, ptr %23, align 8, !tbaa !7
  %24 = getelementptr inbounds nuw i8, ptr %0, i64 16
  store i64 1, ptr %24, align 8, !tbaa !11
  %25 = getelementptr inbounds nuw i8, ptr %0, i64 24
  store i64 1, ptr %25, align 8, !tbaa !18
  %26 = getelementptr inbounds nuw i8, ptr %0, i64 40
  %27 = load ptr, ptr %26, align 8, !tbaa !17
  %28 = load i64, ptr @data_one, align 8
  store i64 %28, ptr %27, align 8
  br label %mpd_qcopy.exit.preheader

mpd_qcopy.exit.preheader:                         ; preds = %4, %mpd_qresize.exit.i, %mpd_qresize.exit.thread.i
  br label %mpd_qcopy.exit

mpd_qcopy.exit:                                   ; preds = %mpd_qcopy.exit.preheader, %31
  %.021 = phi i64 [ %32, %31 ], [ 10, %mpd_qcopy.exit.preheader ]
  %29 = and i64 %.021, 1
  %.not20 = icmp eq i64 %29, 0
  br i1 %.not20, label %31, label %30

30:                                               ; preds = %mpd_qcopy.exit
  call fastcc void @_mpd_qmul_exact(ptr noundef nonnull %0, ptr noundef nonnull %0, ptr noundef nonnull %1, ptr noundef %5, ptr noundef %3)
  call void @mpd_qrem(ptr noundef nonnull %0, ptr noundef nonnull %0, ptr noundef nonnull %2, ptr noundef nonnull %5, ptr noundef %3)
  br label %31

31:                                               ; preds = %30, %mpd_qcopy.exit
  call fastcc void @_mpd_qmul_exact(ptr noundef nonnull %1, ptr noundef nonnull %1, ptr noundef nonnull %1, ptr noundef %5, ptr noundef %3)
  call void @mpd_qrem(ptr noundef nonnull %1, ptr noundef nonnull %1, ptr noundef nonnull %2, ptr noundef nonnull %5, ptr noundef %3)
  %32 = lshr i64 %.021, 1
  %.not = icmp samesign ult i64 %.021, 2
  br i1 %.not, label %33, label %mpd_qcopy.exit, !llvm.loop !71

33:                                               ; preds = %31
  call void @llvm.lifetime.end.p0(i64 48, ptr nonnull %5) #33
  ret void
}